target datalayout = "e-m:e-p270:32:32-p271:32:32-p272:64:64-i64:64-i128:128-f80:128-n8:16:32:64-S128"
target triple = "x86_64-pc-linux-gnu"

%"struct.std::_Rb_tree_header" = type { %"struct.std::_Rb_tree_node_base", i64 }
%"struct.std::_Rb_tree_node_base" = type { i32, ptr, ptr, ptr }
%"class.net::QuicFlowController" = type { ptr, i32, i32, i64, i64, i64, i64, i64, i64, i64, i8, i64, %"class.net::QuicTime" }
%"class.net::QuicTime" = type { i64 }
%"class.base::BasicStringPiece" = type { ptr, i64 }
%"struct.std::__detail::_List_node_header" = type { %"struct.std::__detail::_List_node_base", i64 }
%"struct.std::__detail::_List_node_base" = type { ptr, ptr }
%"class.net::ReliableQuicStream" = type <{ ptr, %"class.std::__cxx11::list", i64, %"class.net::QuicStreamSequencer", i32, [4 x i8], ptr, i64, i64, i32, i32, i8, i8, i8, i8, i8, i8, i8, i8, i32, [4 x i8], %"class.net::QuicFlowController", ptr, i8, [7 x i8] }>
%"class.std::__cxx11::list" = type { %"class.std::__cxx11::_List_base" }
%"class.std::__cxx11::_List_base" = type { %"struct.std::__cxx11::_List_base<net::ReliableQuicStream::PendingData, std::allocator<net::ReliableQuicStream::PendingData>>::_List_impl" }
%"struct.std::__cxx11::_List_base<net::ReliableQuicStream::PendingData, std::allocator<net::ReliableQuicStream::PendingData>>::_List_impl" = type { %"struct.std::__detail::_List_node_header" }
%"class.net::QuicStreamSequencer" = type <{ ptr, ptr, %"class.net::QuicStreamSequencerBuffer", i64, i8, [3 x i8], i32, i32, [4 x i8], ptr, i8, [7 x i8] }>
%"class.net::QuicStreamSequencerBuffer" = type { i64, i64, i64, %"class.std::__cxx11::list.43", i8, %"class.std::unique_ptr.48", i64, %"class.std::map.56" }
%"class.std::__cxx11::list.43" = type { %"class.std::__cxx11::_List_base.44" }
%"class.std::__cxx11::_List_base.44" = type { %"struct.std::__cxx11::_List_base<net::QuicStreamSequencerBuffer::Gap, std::allocator<net::QuicStreamSequencerBuffer::Gap>>::_List_impl" }
%"struct.std::__cxx11::_List_base<net::QuicStreamSequencerBuffer::Gap, std::allocator<net::QuicStreamSequencerBuffer::Gap>>::_List_impl" = type { %"struct.std::__detail::_List_node_header" }
%"class.std::unique_ptr.48" = type { %"struct.std::__uniq_ptr_data.49" }
%"struct.std::__uniq_ptr_data.49" = type { %"class.std::__uniq_ptr_impl.50" }
%"class.std::__uniq_ptr_impl.50" = type { %"class.std::tuple.51" }
%"class.std::tuple.51" = type { %"struct.std::_Tuple_impl.52" }
%"struct.std::_Tuple_impl.52" = type { %"struct.std::_Head_base.55" }
%"struct.std::_Head_base.55" = type { ptr }
%"class.std::map.56" = type { %"class.std::_Rb_tree.57" }
%"class.std::_Rb_tree.57" = type { %"struct.std::_Rb_tree<unsigned long, std::pair<const unsigned long, net::QuicStreamSequencerBuffer::FrameInfo>, std::_Select1st<std::pair<const unsigned long, net::QuicStreamSequencerBuffer::FrameInfo>>, std::less<unsigned long>>::_Rb_tree_impl" }
%"struct.std::_Rb_tree<unsigned long, std::pair<const unsigned long, net::QuicStreamSequencerBuffer::FrameInfo>, std::_Select1st<std::pair<const unsigned long, net::QuicStreamSequencerBuffer::FrameInfo>>, std::less<unsigned long>>::_Rb_tree_impl" = type { [8 x i8], %"struct.std::_Rb_tree_header" }
%"struct.net::QuicStreamFrame" = type { i32, i8, i16, ptr, i64, %"class.std::unique_ptr.278" }
%"class.std::unique_ptr.278" = type { %"struct.std::__uniq_ptr_data.279" }
%"struct.std::__uniq_ptr_data.279" = type { %"class.std::__uniq_ptr_impl.280" }
%"class.std::__uniq_ptr_impl.280" = type { %"class.std::tuple.281" }
%"class.std::tuple.281" = type { %"struct.std::_Tuple_impl.282" }
%"struct.std::_Tuple_impl.282" = type { %"struct.std::_Tuple_impl.283", %"struct.std::_Head_base.110" }
%"struct.std::_Tuple_impl.283" = type { %"struct.std::_Head_base.284" }
%"struct.std::_Head_base.284" = type { %"class.net::StreamBufferDeleter" }
%"class.net::StreamBufferDeleter" = type { ptr }
%"struct.std::_Head_base.110" = type { ptr }

; Function Attrs: mustprogress nounwind uwtable
define available_externally void @_ZN4base16BasicStringPieceINSt7__cxx1112basic_stringIcSt11char_traitsIcESaIcEEEEC2EPKcm(ptr noundef nonnull align 8 dereferenceable(16) %0, ptr noundef %1, i64 noundef %2) unnamed_addr #2 align 2 {
  %4 = alloca ptr, align 8
  %5 = alloca ptr, align 8
  %6 = alloca i64, align 8
  store ptr %0, ptr %4, align 8, !tbaa !161
  store ptr %1, ptr %5, align 8, !tbaa !135
  store i64 %2, ptr %6, align 8, !tbaa !136
  %7 = load ptr, ptr %4, align 8
  %8 = getelementptr inbounds nuw %"class.base::BasicStringPiece", ptr %7, i32 0, i32 0
  %9 = load ptr, ptr %5, align 8, !tbaa !135
  store ptr %9, ptr %8, align 8, !tbaa !163
  %10 = getelementptr inbounds nuw %"class.base::BasicStringPiece", ptr %7, i32 0, i32 1
  %11 = load i64, ptr %6, align 8, !tbaa !136
  store i64 %11, ptr %10, align 8, !tbaa !165
  ret void
}

; Function Attrs: mustprogress nounwind uwtable
define linkonce_odr noundef i64 @_ZNK3net18QuicFlowController28highest_received_byte_offsetEv(ptr noundef nonnull align 8 dereferenceable(96) %0) #2 comdat align 2 {
  %2 = alloca ptr, align 8
  store ptr %0, ptr %2, align 8, !tbaa !157
  %3 = load ptr, ptr %2, align 8
  %4 = getelementptr inbounds nuw %"class.net::QuicFlowController", ptr %3, i32 0, i32 6
  %5 = load i64, ptr %4, align 8, !tbaa !160
  ret i64 %5
}

; Function Attrs: mustprogress nounwind uwtable
define linkonce_odr noundef ptr @_ZN3net18ReliableQuicStream15flow_controllerEv(ptr noundef nonnull align 8 dereferenceable(377) %0) #2 comdat align 2 {
  %2 = alloca ptr, align 8
  store ptr %0, ptr %2, align 8, !tbaa !88
  %3 = load ptr, ptr %2, align 8
  %4 = getelementptr inbounds nuw %"class.net::ReliableQuicStream", ptr %3, i32 0, i32 21
  ret ptr %4
}

; Function Attrs: mustprogress uwtable
define noundef ptr @_ZN3net15QuicSpdySession17GetSpdyDataStreamEj(ptr noundef nonnull align 8 dereferenceable(2057) %0, i32 noundef %1) #0 align 2 {
  %3 = alloca ptr, align 8
  %4 = alloca i32, align 4
  store ptr %0, ptr %3, align 8, !tbaa !3
  store i32 %1, ptr %4, align 4, !tbaa !115
  %5 = load ptr, ptr %3, align 8
  %6 = load i32, ptr %4, align 4, !tbaa !115
  %7 = call noundef ptr @_ZN3net11QuicSession24GetOrCreateDynamicStreamEj(ptr noundef nonnull align 8 dereferenceable(2044) %5, i32 noundef %6)
  ret ptr %7
}

; Function Attrs: mustprogress uwtable
define void @_ZN3net15QuicSpdySession17OnStreamFrameDataEjPKcmb(ptr noundef nonnull align 8 dereferenceable(2057) %0, i32 noundef %1, ptr noundef %2, i64 noundef %3, i1 noundef zeroext %4) unnamed_addr #0 align 2 personality ptr @__gxx_personality_v0 {
  %6 = alloca ptr, align 8
  %7 = alloca i32, align 4
  %8 = alloca ptr, align 8
  %9 = alloca i64, align 8
  %10 = alloca i8, align 1
  %11 = alloca ptr, align 8
  %12 = alloca i32, align 4
  %13 = alloca i64, align 8
  %14 = alloca %"struct.net::QuicStreamFrame", align 8
  %15 = alloca %"class.base::BasicStringPiece", align 8
  %16 = alloca ptr, align 8
  %17 = alloca i32, align 4
  store ptr %0, ptr %6, align 8, !tbaa !3
  store i32 %1, ptr %7, align 4, !tbaa !115
  store ptr %2, ptr %8, align 8, !tbaa !135
  store i64 %3, ptr %9, align 8, !tbaa !136
  %18 = zext i1 %4 to i8
  store i8 %18, ptr %10, align 1, !tbaa !138
  %19 = load ptr, ptr %6, align 8
  call void @llvm.lifetime.start.p0(i64 8, ptr %11) #16
  %20 = load i32, ptr %7, align 4, !tbaa !115
  %21 = call noundef ptr @_ZN3net15QuicSpdySession17GetSpdyDataStreamEj(ptr noundef nonnull align 8 dereferenceable(2057) %19, i32 noundef %20)
  store ptr %21, ptr %11, align 8, !tbaa !132
  %22 = load ptr, ptr %11, align 8, !tbaa !132
  %23 = icmp eq ptr %22, null
  br i1 %23, label %24, label %25

24:                                               ; preds = %5
  store i32 1, ptr %12, align 4
  br label %43

25:                                               ; preds = %5
  call void @llvm.lifetime.start.p0(i64 8, ptr %13) #16
  %26 = load ptr, ptr %11, align 8, !tbaa !132
  %27 = call noundef ptr @_ZN3net18ReliableQuicStream15flow_controllerEv(ptr noundef nonnull align 8 dereferenceable(377) %26)
  %28 = call noundef i64 @_ZNK3net18QuicFlowController28highest_received_byte_offsetEv(ptr noundef nonnull align 8 dereferenceable(96) %27)
  store i64 %28, ptr %13, align 8, !tbaa !136
  call void @llvm.lifetime.start.p0(i64 40, ptr %14) #16
  %29 = load i32, ptr %7, align 4, !tbaa !115
  %30 = load i8, ptr %10, align 1, !tbaa !138, !range !139, !noundef !140
  %31 = trunc i8 %30 to i1
  %32 = load i64, ptr %13, align 8, !tbaa !136
  %33 = load ptr, ptr %8, align 8, !tbaa !135
  %34 = load i64, ptr %9, align 8, !tbaa !136
  call void @_ZN4base16BasicStringPieceINSt7__cxx1112basic_stringIcSt11char_traitsIcESaIcEEEEC2EPKcm(ptr noundef nonnull align 8 dereferenceable(16) %15, ptr noundef %33, i64 noundef %34)
  %35 = getelementptr inbounds nuw { ptr, i64 }, ptr %15, i32 0, i32 0
  %36 = load ptr, ptr %35, align 8
  %37 = getelementptr inbounds nuw { ptr, i64 }, ptr %15, i32 0, i32 1
  %38 = load i64, ptr %37, align 8
  call void @_ZN3net15QuicStreamFrameC1EjbmN4base16BasicStringPieceINSt7__cxx1112basic_stringIcSt11char_traitsIcESaIcEEEEE(ptr noundef nonnull align 8 dereferenceable(40) %14, i32 noundef %29, i1 noundef zeroext %31, i64 noundef %32, ptr %36, i64 %38)
  %39 = load ptr, ptr %19, align 8, !tbaa !12
  %40 = getelementptr inbounds ptr, ptr %39, i64 2
  %41 = load ptr, ptr %40, align 8
  invoke void %41(ptr noundef nonnull align 8 dereferenceable(2044) %19, ptr noundef nonnull align 8 dereferenceable(40) %14)
          to label %42 unwind label %46

42:                                               ; preds = %25
  call void @_ZN3net15QuicStreamFrameD1Ev(ptr noundef nonnull align 8 dereferenceable(40) %14) #16
  call void @llvm.lifetime.end.p0(i64 40, ptr %14) #16
  call void @llvm.lifetime.end.p0(i64 8, ptr %13) #16
  store i32 0, ptr %12, align 4
  br label %43

43:                                               ; preds = %42, %24
  call void @llvm.lifetime.end.p0(i64 8, ptr %11) #16
  %44 = load i32, ptr %12, align 4
  switch i32 %44, label %55 [
    i32 0, label %45
    i32 1, label %45
  ]

45:                                               ; preds = %43, %43
  ret void

46:                                               ; preds = %25
  %47 = landingpad { ptr, i32 }
          cleanup
  %48 = extractvalue { ptr, i32 } %47, 0
  store ptr %48, ptr %16, align 8
  %49 = extractvalue { ptr, i32 } %47, 1
  store i32 %49, ptr %17, align 4
  call void @_ZN3net15QuicStreamFrameD1Ev(ptr noundef nonnull align 8 dereferenceable(40) %14) #16
  call void @llvm.lifetime.end.p0(i64 40, ptr %14) #16
  call void @llvm.lifetime.end.p0(i64 8, ptr %13) #16
  call void @llvm.lifetime.end.p0(i64 8, ptr %11) #16
  br label %50

50:                                               ; preds = %46
  %51 = load ptr, ptr %16, align 8
  %52 = load i32, ptr %17, align 4
  %53 = insertvalue { ptr, i32 } poison, ptr %51, 0
  %54 = insertvalue { ptr, i32 } %53, i32 %52, 1
  resume { ptr, i32 } %54

55:                                               ; preds = %43
  unreachable
}