; Function Attrs: mustprogress uwtable
define void @_ZN3net15QuicSpdySession17OnStreamFrameDataEjPKcmb(ptr noundef nonnull align 8 dereferenceable(2057) %0, i32 noundef %1, ptr noundef %2, i64 noundef %3, i1 noundef zeroext %4) unnamed_addr #0 align 2 personality ptr @__gxx_personality_v0 {
  %6 = alloca %"struct.net::QuicStreamFrame", align 8
  %7 = tail call noundef ptr @_ZN3net11QuicSession24GetOrCreateDynamicStreamEj(ptr noundef nonnull align 8 dereferenceable(2057) %0, i32 noundef %1)
  %8 = icmp eq ptr %7, null
  br i1 %8, label %16, label %9

9:                                                ; preds = %5
  %10 = getelementptr inbounds nuw i8, ptr %7, i64 312
  %11 = load i64, ptr %10, align 8, !tbaa !241
  call void @llvm.lifetime.start.p0(i64 40, ptr nonnull %6) #18
  call void @_ZN3net15QuicStreamFrameC1EjbmN4base16BasicStringPieceINSt7__cxx1112basic_stringIcSt11char_traitsIcESaIcEEEEE(ptr noundef nonnull align 8 dereferenceable(40) %6, i32 noundef %1, i1 noundef zeroext %4, i64 noundef %11, ptr %2, i64 %3)
  %12 = load ptr, ptr %0, align 8, !tbaa !3
  %13 = getelementptr inbounds nuw i8, ptr %12, i64 16
  %14 = load ptr, ptr %13, align 8
  invoke void %14(ptr noundef nonnull align 8 dereferenceable(2044) %0, ptr noundef nonnull align 8 dereferenceable(40) %6)
          to label %15 unwind label %17

15:                                               ; preds = %9
  call void @_ZN3net15QuicStreamFrameD1Ev(ptr noundef nonnull align 8 dereferenceable(40) %6) #18
  call void @llvm.lifetime.end.p0(i64 40, ptr nonnull %6) #18
  br label %16

16:                                               ; preds = %5, %15
  ret void

17:                                               ; preds = %9
  %18 = landingpad { ptr, i32 }
          cleanup
  call void @_ZN3net15QuicStreamFrameD1Ev(ptr noundef nonnull align 8 dereferenceable(40) %6) #18
  call void @llvm.lifetime.end.p0(i64 40, ptr nonnull %6) #18
  resume { ptr, i32 } %18
}